target datalayout = "e-m:e-p270:32:32-p271:32:32-p272:64:64-i64:64-i128:128-f80:128-n8:16:32:64-S128"
target triple = "x86_64-pc-linux-gnu"

%struct.pxr_nc_1_0_ColorSpaceM33Descriptor = type { ptr, %struct.pxr_nc_1_0_M33f, float, float }
%struct.pxr_nc_1_0_M33f = type { [9 x float] }
%"class.pxrInternal_v0_24__pxrReserved__::GfColorSpace" = type { %"class.std::shared_ptr" }
%"class.std::shared_ptr" = type { %"class.std::__shared_ptr" }
%"class.std::__shared_ptr" = type { ptr, %"class.std::__shared_count" }
%"class.std::__shared_count" = type { ptr }
%"struct.pxrInternal_v0_24__pxrReserved__::GfColorSpace::_Data" = type { ptr }
%"class.pxrInternal_v0_24__pxrReserved__::GfMatrix3f" = type { %"class.pxrInternal_v0_24__pxrReserved__::GfMatrixData" }
%"class.pxrInternal_v0_24__pxrReserved__::GfMatrixData" = type { [9 x float] }

; Function Attrs: mustprogress nounwind uwtable
define linkonce_odr noundef ptr @_ZN32pxrInternal_v0_24__pxrReserved__12GfMatrixDataIfLi3ELi3EEixEi(ptr noundef nonnull align 4 dereferenceable(36) %0, i32 noundef %1) #2 comdat align 2 {
  %3 = alloca ptr, align 8
  %4 = alloca i32, align 4
  store ptr %0, ptr %3, align 8
  store i32 %1, ptr %4, align 4
  %5 = load ptr, ptr %3, align 8
  %6 = getelementptr inbounds nuw %"class.pxrInternal_v0_24__pxrReserved__::GfMatrixData", ptr %5, i32 0, i32 0
  %7 = getelementptr inbounds [9 x float], ptr %6, i64 0, i64 0
  %8 = load i32, ptr %4, align 4
  %9 = mul nsw i32 %8, 3
  %10 = sext i32 %9 to i64
  %11 = getelementptr inbounds float, ptr %7, i64 %10
  ret ptr %11
}

; Function Attrs: mustprogress nounwind uwtable
define linkonce_odr noundef ptr @_ZNKSt12__shared_ptrIN32pxrInternal_v0_24__pxrReserved__12GfColorSpace5_DataELN9__gnu_cxx12_Lock_policyE2EE3getEv(ptr noundef nonnull align 8 dereferenceable(16) %0) #2 comdat align 2 {
  %2 = alloca ptr, align 8
  store ptr %0, ptr %2, align 8
  %3 = load ptr, ptr %2, align 8
  %4 = getelementptr inbounds nuw %"class.std::__shared_ptr", ptr %3, i32 0, i32 0
  %5 = load ptr, ptr %4, align 8
  ret ptr %5
}

; Function Attrs: mustprogress uwtable
define linkonce_odr noundef nonnull align 4 dereferenceable(36) ptr @_ZN32pxrInternal_v0_24__pxrReserved__10GfMatrix3f3SetEfffffffff(ptr noundef nonnull align 4 dereferenceable(36) %0, float noundef %1, float noundef %2, float noundef %3, float noundef %4, float noundef %5, float noundef %6, float noundef %7, float noundef %8, float noundef %9) #0 comdat align 2 {
  %11 = alloca ptr, align 8
  %12 = alloca float, align 4
  %13 = alloca float, align 4
  %14 = alloca float, align 4
  %15 = alloca float, align 4
  %16 = alloca float, align 4
  %17 = alloca float, align 4
  %18 = alloca float, align 4
  %19 = alloca float, align 4
  %20 = alloca float, align 4
  store ptr %0, ptr %11, align 8
  store float %1, ptr %12, align 4
  store float %2, ptr %13, align 4
  store float %3, ptr %14, align 4
  store float %4, ptr %15, align 4
  store float %5, ptr %16, align 4
  store float %6, ptr %17, align 4
  store float %7, ptr %18, align 4
  store float %8, ptr %19, align 4
  store float %9, ptr %20, align 4
  %21 = load ptr, ptr %11, align 8
  %22 = load float, ptr %12, align 4
  %23 = getelementptr inbounds nuw %"class.pxrInternal_v0_24__pxrReserved__::GfMatrix3f", ptr %21, i32 0, i32 0
  %24 = call noundef ptr @_ZN32pxrInternal_v0_24__pxrReserved__12GfMatrixDataIfLi3ELi3EEixEi(ptr noundef nonnull align 4 dereferenceable(36) %23, i32 noundef 0)
  %25 = getelementptr inbounds float, ptr %24, i64 0
  store float %22, ptr %25, align 4
  %26 = load float, ptr %13, align 4
  %27 = getelementptr inbounds nuw %"class.pxrInternal_v0_24__pxrReserved__::GfMatrix3f", ptr %21, i32 0, i32 0
  %28 = call noundef ptr @_ZN32pxrInternal_v0_24__pxrReserved__12GfMatrixDataIfLi3ELi3EEixEi(ptr noundef nonnull align 4 dereferenceable(36) %27, i32 noundef 0)
  %29 = getelementptr inbounds float, ptr %28, i64 1
  store float %26, ptr %29, align 4
  %30 = load float, ptr %14, align 4
  %31 = getelementptr inbounds nuw %"class.pxrInternal_v0_24__pxrReserved__::GfMatrix3f", ptr %21, i32 0, i32 0
  %32 = call noundef ptr @_ZN32pxrInternal_v0_24__pxrReserved__12GfMatrixDataIfLi3ELi3EEixEi(ptr noundef nonnull align 4 dereferenceable(36) %31, i32 noundef 0)
  %33 = getelementptr inbounds float, ptr %32, i64 2
  store float %30, ptr %33, align 4
  %34 = load float, ptr %15, align 4
  %35 = getelementptr inbounds nuw %"class.pxrInternal_v0_24__pxrReserved__::GfMatrix3f", ptr %21, i32 0, i32 0
  %36 = call noundef ptr @_ZN32pxrInternal_v0_24__pxrReserved__12GfMatrixDataIfLi3ELi3EEixEi(ptr noundef nonnull align 4 dereferenceable(36) %35, i32 noundef 1)
  %37 = getelementptr inbounds float, ptr %36, i64 0
  store float %34, ptr %37, align 4
  %38 = load float, ptr %16, align 4
  %39 = getelementptr inbounds nuw %"class.pxrInternal_v0_24__pxrReserved__::GfMatrix3f", ptr %21, i32 0, i32 0
  %40 = call noundef ptr @_ZN32pxrInternal_v0_24__pxrReserved__12GfMatrixDataIfLi3ELi3EEixEi(ptr noundef nonnull align 4 dereferenceable(36) %39, i32 noundef 1)
  %41 = getelementptr inbounds float, ptr %40, i64 1
  store float %38, ptr %41, align 4
  %42 = load float, ptr %17, align 4
  %43 = getelementptr inbounds nuw %"class.pxrInternal_v0_24__pxrReserved__::GfMatrix3f", ptr %21, i32 0, i32 0
  %44 = call noundef ptr @_ZN32pxrInternal_v0_24__pxrReserved__12GfMatrixDataIfLi3ELi3EEixEi(ptr noundef nonnull align 4 dereferenceable(36) %43, i32 noundef 1)
  %45 = getelementptr inbounds float, ptr %44, i64 2
  store float %42, ptr %45, align 4
  %46 = load float, ptr %18, align 4
  %47 = getelementptr inbounds nuw %"class.pxrInternal_v0_24__pxrReserved__::GfMatrix3f", ptr %21, i32 0, i32 0
  %48 = call noundef ptr @_ZN32pxrInternal_v0_24__pxrReserved__12GfMatrixDataIfLi3ELi3EEixEi(ptr noundef nonnull align 4 dereferenceable(36) %47, i32 noundef 2)
  %49 = getelementptr inbounds float, ptr %48, i64 0
  store float %46, ptr %49, align 4
  %50 = load float, ptr %19, align 4
  %51 = getelementptr inbounds nuw %"class.pxrInternal_v0_24__pxrReserved__::GfMatrix3f", ptr %21, i32 0, i32 0
  %52 = call noundef ptr @_ZN32pxrInternal_v0_24__pxrReserved__12GfMatrixDataIfLi3ELi3EEixEi(ptr noundef nonnull align 4 dereferenceable(36) %51, i32 noundef 2)
  %53 = getelementptr inbounds float, ptr %52, i64 1
  store float %50, ptr %53, align 4
  %54 = load float, ptr %20, align 4
  %55 = getelementptr inbounds nuw %"class.pxrInternal_v0_24__pxrReserved__::GfMatrix3f", ptr %21, i32 0, i32 0
  %56 = call noundef ptr @_ZN32pxrInternal_v0_24__pxrReserved__12GfMatrixDataIfLi3ELi3EEixEi(ptr noundef nonnull align 4 dereferenceable(36) %55, i32 noundef 2)
  %57 = getelementptr inbounds float, ptr %56, i64 2
  store float %54, ptr %57, align 4
  ret ptr %21
}

; Function Attrs: mustprogress nounwind uwtable
define linkonce_odr noundef ptr @_ZNKSt19__shared_ptr_accessIN32pxrInternal_v0_24__pxrReserved__12GfColorSpace5_DataELN9__gnu_cxx12_Lock_policyE2ELb0ELb0EE6_M_getEv(ptr noundef nonnull align 1 dereferenceable(1) %0) #2 comdat align 2 {
  %2 = alloca ptr, align 8
  store ptr %0, ptr %2, align 8
  %3 = load ptr, ptr %2, align 8
  %4 = call noundef ptr @_ZNKSt12__shared_ptrIN32pxrInternal_v0_24__pxrReserved__12GfColorSpace5_DataELN9__gnu_cxx12_Lock_policyE2EE3getEv(ptr noundef nonnull align 8 dereferenceable(16) %3) #9
  ret ptr %4
}

; Function Attrs: mustprogress uwtable
define linkonce_odr void @_ZN32pxrInternal_v0_24__pxrReserved__10GfMatrix3fC2Efffffffff(ptr noundef nonnull align 4 dereferenceable(36) %0, float noundef %1, float noundef %2, float noundef %3, float noundef %4, float noundef %5, float noundef %6, float noundef %7, float noundef %8, float noundef %9) unnamed_addr #0 comdat align 2 {
  %11 = alloca ptr, align 8
  %12 = alloca float, align 4
  %13 = alloca float, align 4
  %14 = alloca float, align 4
  %15 = alloca float, align 4
  %16 = alloca float, align 4
  %17 = alloca float, align 4
  %18 = alloca float, align 4
  %19 = alloca float, align 4
  %20 = alloca float, align 4
  store ptr %0, ptr %11, align 8
  store float %1, ptr %12, align 4
  store float %2, ptr %13, align 4
  store float %3, ptr %14, align 4
  store float %4, ptr %15, align 4
  store float %5, ptr %16, align 4
  store float %6, ptr %17, align 4
  store float %7, ptr %18, align 4
  store float %8, ptr %19, align 4
  store float %9, ptr %20, align 4
  %21 = load ptr, ptr %11, align 8
  %22 = load float, ptr %12, align 4
  %23 = load float, ptr %13, align 4
  %24 = load float, ptr %14, align 4
  %25 = load float, ptr %15, align 4
  %26 = load float, ptr %16, align 4
  %27 = load float, ptr %17, align 4
  %28 = load float, ptr %18, align 4
  %29 = load float, ptr %19, align 4
  %30 = load float, ptr %20, align 4
  %31 = call noundef nonnull align 4 dereferenceable(36) ptr @_ZN32pxrInternal_v0_24__pxrReserved__10GfMatrix3f3SetEfffffffff(ptr noundef nonnull align 4 dereferenceable(36) %21, float noundef %22, float noundef %23, float noundef %24, float noundef %25, float noundef %26, float noundef %27, float noundef %28, float noundef %29, float noundef %30)
  ret void
}

; Function Attrs: mustprogress uwtable
define linkonce_odr void @_ZN32pxrInternal_v0_24__pxrReserved__10GfMatrix3fC2Ef(ptr noundef nonnull align 4 dereferenceable(36) %0, float noundef %1) unnamed_addr #0 comdat align 2 {
  %3 = alloca ptr, align 8
  %4 = alloca float, align 4
  store ptr %0, ptr %3, align 8
  store float %1, ptr %4, align 4
  %5 = load ptr, ptr %3, align 8
  %6 = load float, ptr %4, align 4
  %7 = call noundef nonnull align 4 dereferenceable(36) ptr @_ZN32pxrInternal_v0_24__pxrReserved__10GfMatrix3f11SetDiagonalEf(ptr noundef nonnull align 4 dereferenceable(36) %5, float noundef %6)
  ret void
}

; Function Attrs: mustprogress nounwind uwtable
define linkonce_odr noundef ptr @_ZNKSt19__shared_ptr_accessIN32pxrInternal_v0_24__pxrReserved__12GfColorSpace5_DataELN9__gnu_cxx12_Lock_policyE2ELb0ELb0EEptEv(ptr noundef nonnull align 1 dereferenceable(1) %0) #2 comdat align 2 {
  %2 = alloca ptr, align 8
  store ptr %0, ptr %2, align 8
  %3 = load ptr, ptr %2, align 8
  %4 = call noundef ptr @_ZNKSt19__shared_ptr_accessIN32pxrInternal_v0_24__pxrReserved__12GfColorSpace5_DataELN9__gnu_cxx12_Lock_policyE2ELb0ELb0EE6_M_getEv(ptr noundef nonnull align 1 dereferenceable(1) %3) #9
  ret ptr %4
}

; Function Attrs: mustprogress uwtable
define void @_ZNK32pxrInternal_v0_24__pxrReserved__12GfColorSpace11GetRGBToXYZEv(ptr dead_on_unwind noalias writable sret(%"class.pxrInternal_v0_24__pxrReserved__::GfMatrix3f") align 4 %0, ptr noundef nonnull align 8 dereferenceable(16) %1) #0 align 2 {
  %3 = alloca ptr, align 8
  %4 = alloca %struct.pxr_nc_1_0_ColorSpaceM33Descriptor, align 8
  %5 = alloca ptr, align 8
  store ptr %1, ptr %3, align 8
  %6 = load ptr, ptr %3, align 8
  %7 = getelementptr inbounds nuw %"class.pxrInternal_v0_24__pxrReserved__::GfColorSpace", ptr %6, i32 0, i32 0
  %8 = call noundef ptr @_ZNKSt19__shared_ptr_accessIN32pxrInternal_v0_24__pxrReserved__12GfColorSpace5_DataELN9__gnu_cxx12_Lock_policyE2ELb0ELb0EEptEv(ptr noundef nonnull align 1 dereferenceable(1) %7) #9
  %9 = getelementptr inbounds nuw %"struct.pxrInternal_v0_24__pxrReserved__::GfColorSpace::_Data", ptr %8, i32 0, i32 0
  %10 = load ptr, ptr %9, align 8
  %11 = call zeroext i1 @pxr_nc_1_0_GetColorSpaceM33Descriptor(ptr noundef %10, ptr noundef %4)
  br i1 %11, label %13, label %12

12:                                               ; preds = %2
  call void @_ZN32pxrInternal_v0_24__pxrReserved__10GfMatrix3fC2Ef(ptr noundef nonnull align 4 dereferenceable(36) %0, float noundef 1.000000e+00)
  br label %44

13:                                               ; preds = %2
  %14 = getelementptr inbounds nuw %struct.pxr_nc_1_0_ColorSpaceM33Descriptor, ptr %4, i32 0, i32 1
  %15 = getelementptr inbounds nuw %struct.pxr_nc_1_0_M33f, ptr %14, i32 0, i32 0
  %16 = getelementptr inbounds [9 x float], ptr %15, i64 0, i64 0
  store ptr %16, ptr %5, align 8
  %17 = load ptr, ptr %5, align 8
  %18 = getelementptr inbounds float, ptr %17, i64 0
  %19 = load float, ptr %18, align 4
  %20 = load ptr, ptr %5, align 8
  %21 = getelementptr inbounds float, ptr %20, i64 1
  %22 = load float, ptr %21, align 4
  %23 = load ptr, ptr %5, align 8
  %24 = getelementptr inbounds float, ptr %23, i64 2
  %25 = load float, ptr %24, align 4
  %26 = load ptr, ptr %5, align 8
  %27 = getelementptr inbounds float, ptr %26, i64 3
  %28 = load float, ptr %27, align 4
  %29 = load ptr, ptr %5, align 8
  %30 = getelementptr inbounds float, ptr %29, i64 4
  %31 = load float, ptr %30, align 4
  %32 = load ptr, ptr %5, align 8
  %33 = getelementptr inbounds float, ptr %32, i64 5
  %34 = load float, ptr %33, align 4
  %35 = load ptr, ptr %5, align 8
  %36 = getelementptr inbounds float, ptr %35, i64 6
  %37 = load float, ptr %36, align 4
  %38 = load ptr, ptr %5, align 8
  %39 = getelementptr inbounds float, ptr %38, i64 7
  %40 = load float, ptr %39, align 4
  %41 = load ptr, ptr %5, align 8
  %42 = getelementptr inbounds float, ptr %41, i64 8
  %43 = load float, ptr %42, align 4
  call void @_ZN32pxrInternal_v0_24__pxrReserved__10GfMatrix3fC2Efffffffff(ptr noundef nonnull align 4 dereferenceable(36) %0, float noundef %19, float noundef %22, float noundef %25, float noundef %28, float noundef %31, float noundef %34, float noundef %37, float noundef %40, float noundef %43)
  br label %44

44:                                               ; preds = %13, %12
  ret void
}