; Function Attrs: mustprogress uwtable
define void @_ZNK32pxrInternal_v0_24__pxrReserved__12GfColorSpace11GetRGBToXYZEv(ptr dead_on_unwind noalias writable sret(%"class.pxrInternal_v0_24__pxrReserved__::GfMatrix3f") align 4 %0, ptr noundef nonnull readonly align 8 captures(none) dereferenceable(16) %1) local_unnamed_addr #0 align 2 {
  %3 = alloca %struct.pxr_nc_1_0_ColorSpaceM33Descriptor, align 8
  %4 = load ptr, ptr %1, align 8
  %5 = load ptr, ptr %4, align 8
  %6 = call zeroext i1 @pxr_nc_1_0_GetColorSpaceM33Descriptor(ptr noundef %5, ptr noundef nonnull %3)
  br i1 %6, label %9, label %7

7:                                                ; preds = %2
  %8 = call noundef nonnull align 4 dereferenceable(36) ptr @_ZN32pxrInternal_v0_24__pxrReserved__10GfMatrix3f11SetDiagonalEf(ptr noundef nonnull align 4 dereferenceable(36) %0, float noundef 1.000000e+00)
  br label %36

9:                                                ; preds = %2
  %10 = getelementptr inbounds nuw i8, ptr %3, i64 8
  %11 = load float, ptr %10, align 8
  %12 = getelementptr inbounds nuw i8, ptr %3, i64 12
  %13 = load float, ptr %12, align 4
  %14 = getelementptr inbounds nuw i8, ptr %3, i64 16
  %15 = load float, ptr %14, align 8
  %16 = getelementptr inbounds nuw i8, ptr %3, i64 20
  %17 = load float, ptr %16, align 4
  %18 = getelementptr inbounds nuw i8, ptr %3, i64 24
  %19 = load float, ptr %18, align 8
  %20 = getelementptr inbounds nuw i8, ptr %3, i64 28
  %21 = load float, ptr %20, align 4
  %22 = getelementptr inbounds nuw i8, ptr %3, i64 32
  %23 = load float, ptr %22, align 8
  %24 = getelementptr inbounds nuw i8, ptr %3, i64 36
  %25 = load float, ptr %24, align 4
  %26 = getelementptr inbounds nuw i8, ptr %3, i64 40
  %27 = load float, ptr %26, align 8
  store float %11, ptr %0, align 4
  %28 = getelementptr inbounds nuw i8, ptr %0, i64 4
  store float %13, ptr %28, align 4
  %29 = getelementptr inbounds nuw i8, ptr %0, i64 8
  store float %15, ptr %29, align 4
  %30 = getelementptr inbounds nuw i8, ptr %0, i64 12
  store float %17, ptr %30, align 4
  %31 = getelementptr inbounds nuw i8, ptr %0, i64 16
  store float %19, ptr %31, align 4
  %32 = getelementptr inbounds nuw i8, ptr %0, i64 20
  store float %21, ptr %32, align 4
  %33 = getelementptr inbounds nuw i8, ptr %0, i64 24
  store float %23, ptr %33, align 4
  %34 = getelementptr inbounds nuw i8, ptr %0, i64 28
  store float %25, ptr %34, align 4
  %35 = getelementptr inbounds nuw i8, ptr %0, i64 32
  store float %27, ptr %35, align 4
  br label %36

36:                                               ; preds = %9, %7
  ret void
}